target datalayout = "e-m:e-p270:32:32-p271:32:32-p272:64:64-i64:64-i128:128-f80:128-n8:16:32:64-S128"
target triple = "x86_64-pc-linux-gnu"

%struct.RBasic = type { i64, i64 }
%struct.RFile = type { %struct.RBasic, ptr }
%struct.rb_io = type { i64, ptr, i32, i32, i32, i32, i64, ptr, %struct.rb_io_internal_buffer, %struct.rb_io_internal_buffer, i64, %struct.rb_io_encoding, ptr, %struct.rb_io_internal_buffer, ptr, i64, i32, i32, i64, i64, i64 }
%struct.rb_io_encoding = type { ptr, ptr, i32, i64 }
%struct.rb_io_internal_buffer = type <{ ptr, i32, i32, i32 }>

@rb_eArgError = external global i64, align 8
@id_in = internal global i64 0, align 8
@id_out = internal global i64 0, align 8
@id_err = internal global i64 0, align 8
@.str.183 = private unnamed_addr constant [22 x i8] c"duplex IO redirection\00", align 1
@.str.184 = private unnamed_addr constant [25 x i8] c"negative file descriptor\00", align 1
@.str.185 = private unnamed_addr constant [20 x i8] c"wrong exec redirect\00", align 1

; Function Attrs: inlinehint nounwind sspstrong willreturn memory(none) uwtable
define internal zeroext i1 @RB_IMMEDIATE_P(i64 noundef %0) #4 {
  %2 = alloca i64, align 8
  store i64 %0, ptr %2, align 8, !tbaa !35
  %3 = load i64, ptr %2, align 8, !tbaa !35
  %4 = and i64 %3, 7
  %5 = icmp ne i64 %4, 0
  ret i1 %5
}

; Function Attrs: inlinehint nounwind sspstrong willreturn memory(read) uwtable
define internal i32 @RB_BUILTIN_TYPE(i64 noundef %0) #5 {
  %2 = alloca i64, align 8
  %3 = alloca i64, align 8
  store i64 %0, ptr %2, align 8, !tbaa !35
  call void @llvm.lifetime.start.p0(i64 8, ptr %3) #27
  %4 = load i64, ptr %2, align 8, !tbaa !35
  %5 = inttoptr i64 %4 to ptr
  %6 = getelementptr inbounds nuw %struct.RBasic, ptr %5, i32 0, i32 0
  %7 = load i64, ptr %6, align 8, !tbaa !215
  %8 = and i64 %7, 31
  store i64 %8, ptr %3, align 8, !tbaa !35
  %9 = load i64, ptr %3, align 8, !tbaa !35
  %10 = trunc i64 %9 to i32
  call void @llvm.lifetime.end.p0(i64 8, ptr %3) #27
  ret i32 %10
}

; Function Attrs: inlinehint nounwind sspstrong willreturn memory(none) uwtable
define internal zeroext i1 @RB_SPECIAL_CONST_P(i64 noundef %0) #4 {
  %2 = alloca i64, align 8
  store i64 %0, ptr %2, align 8, !tbaa !35
  %3 = load i64, ptr %2, align 8, !tbaa !35
  %4 = icmp eq i64 %3, 0
  br i1 %4, label %8, label %5

5:                                                ; preds = %1
  %6 = load i64, ptr %2, align 8, !tbaa !35
  %7 = call zeroext i1 @RB_IMMEDIATE_P(i64 noundef %6) #28
  br label %8

8:                                                ; preds = %5, %1
  %9 = phi i1 [ true, %1 ], [ %7, %5 ]
  ret i1 %9
}

; Function Attrs: inlinehint nounwind sspstrong willreturn memory(read) uwtable
define internal zeroext i1 @RB_DYNAMIC_SYM_P(i64 noundef %0) #5 {
  %2 = alloca i1, align 1
  %3 = alloca i64, align 8
  store i64 %0, ptr %3, align 8, !tbaa !35
  %4 = load i64, ptr %3, align 8, !tbaa !35
  %5 = call zeroext i1 @RB_SPECIAL_CONST_P(i64 noundef %4) #28
  br i1 %5, label %6, label %7

6:                                                ; preds = %1
  store i1 false, ptr %2, align 1
  br label %11

7:                                                ; preds = %1
  %8 = load i64, ptr %3, align 8, !tbaa !35
  %9 = call i32 @RB_BUILTIN_TYPE(i64 noundef %8) #29
  %10 = icmp eq i32 %9, 20
  store i1 %10, ptr %2, align 1
  br label %11

11:                                               ; preds = %7, %6
  %12 = load i1, ptr %2, align 1
  ret i1 %12
}

; Function Attrs: inlinehint nounwind sspstrong willreturn memory(none) uwtable
define internal zeroext i1 @RB_STATIC_SYM_P(i64 noundef %0) #4 {
  %2 = alloca i64, align 8
  %3 = alloca i64, align 8
  store i64 %0, ptr %2, align 8, !tbaa !35
  call void @llvm.lifetime.start.p0(i64 8, ptr %3) #27
  store i64 255, ptr %3, align 8, !tbaa !35
  %4 = load i64, ptr %2, align 8, !tbaa !35
  %5 = and i64 %4, 255
  %6 = icmp eq i64 %5, 12
  call void @llvm.lifetime.end.p0(i64 8, ptr %3) #27
  ret i1 %6
}

; Function Attrs: inlinehint nounwind sspstrong willreturn memory(none) uwtable
define internal i64 @RB_INT2FIX(i64 noundef %0) #4 {
  %2 = alloca i64, align 8
  %3 = alloca i64, align 8
  %4 = alloca i64, align 8
  %5 = alloca i64, align 8
  %6 = alloca i64, align 8
  %7 = alloca i64, align 8
  store i64 %0, ptr %2, align 8, !tbaa !35
  call void @llvm.lifetime.start.p0(i64 8, ptr %3) #27
  %8 = load i64, ptr %2, align 8, !tbaa !35
  store i64 %8, ptr %3, align 8, !tbaa !35
  call void @llvm.lifetime.start.p0(i64 8, ptr %4) #27
  %9 = load i64, ptr %3, align 8, !tbaa !35
  %10 = shl i64 %9, 1
  %11 = add i64 %10, 1
  store i64 %11, ptr %4, align 8, !tbaa !35
  call void @llvm.lifetime.start.p0(i64 8, ptr %5) #27
  %12 = load i64, ptr %4, align 8, !tbaa !35
  store i64 %12, ptr %5, align 8, !tbaa !35
  call void @llvm.lifetime.start.p0(i64 8, ptr %6) #27
  %13 = load i64, ptr %5, align 8, !tbaa !35
  store i64 %13, ptr %6, align 8, !tbaa !35
  call void @llvm.lifetime.start.p0(i64 8, ptr %7) #27
  %14 = load i64, ptr %6, align 8, !tbaa !35
  store i64 %14, ptr %7, align 8, !tbaa !35
  %15 = load i64, ptr %7, align 8, !tbaa !35
  call void @llvm.lifetime.end.p0(i64 8, ptr %7) #27
  call void @llvm.lifetime.end.p0(i64 8, ptr %6) #27
  call void @llvm.lifetime.end.p0(i64 8, ptr %5) #27
  call void @llvm.lifetime.end.p0(i64 8, ptr %4) #27
  call void @llvm.lifetime.end.p0(i64 8, ptr %3) #27
  ret i64 %15
}

; Function Attrs: inlinehint nounwind sspstrong willreturn memory(none) uwtable
define internal zeroext i1 @RB_NIL_P(i64 noundef %0) #4 {
  %2 = alloca i64, align 8
  store i64 %0, ptr %2, align 8, !tbaa !35
  %3 = load i64, ptr %2, align 8, !tbaa !35
  %4 = icmp eq i64 %3, 4
  ret i1 %4
}

; Function Attrs: inlinehint nounwind sspstrong willreturn memory(read) uwtable
define internal zeroext i1 @RB_SYMBOL_P(i64 noundef %0) #5 {
  %2 = alloca i64, align 8
  store i64 %0, ptr %2, align 8, !tbaa !35
  %3 = load i64, ptr %2, align 8, !tbaa !35
  %4 = call zeroext i1 @RB_STATIC_SYM_P(i64 noundef %3) #28
  br i1 %4, label %8, label %5

5:                                                ; preds = %1
  %6 = load i64, ptr %2, align 8, !tbaa !35
  %7 = call zeroext i1 @RB_DYNAMIC_SYM_P(i64 noundef %6) #29
  br label %8

8:                                                ; preds = %5, %1
  %9 = phi i1 [ true, %1 ], [ %7, %5 ]
  ret i1 %9
}

; Function Attrs: inlinehint nounwind sspstrong uwtable
define internal i32 @RB_FIX2INT(i64 noundef %0) #1 {
  %2 = alloca i64, align 8
  %3 = alloca i64, align 8
  store i64 %0, ptr %2, align 8, !tbaa !35
  call void @llvm.lifetime.start.p0(i64 8, ptr %3) #27
  %4 = load i64, ptr %2, align 8, !tbaa !35
  %5 = call i64 @rb_fix2int(i64 noundef %4)
  store i64 %5, ptr %3, align 8, !tbaa !35
  %6 = load i64, ptr %3, align 8, !tbaa !35
  %7 = trunc i64 %6 to i32
  call void @llvm.lifetime.end.p0(i64 8, ptr %3) #27
  ret i32 %7
}

; Function Attrs: inlinehint nounwind sspstrong willreturn memory(none) uwtable
define internal zeroext i1 @RB_FIXNUM_P(i64 noundef %0) #4 {
  %2 = alloca i64, align 8
  store i64 %0, ptr %2, align 8, !tbaa !35
  %3 = load i64, ptr %2, align 8, !tbaa !35
  %4 = and i64 %3, 1
  %5 = icmp ne i64 %4, 0
  ret i1 %5
}

; Function Attrs: nounwind sspstrong uwtable
define internal i64 @check_exec_redirect_fd(i64 noundef %0, i32 noundef %1) #0 {
  %3 = alloca i64, align 8
  %4 = alloca i64, align 8
  %5 = alloca i32, align 4
  %6 = alloca i64, align 8
  %7 = alloca i32, align 4
  %8 = alloca i64, align 8
  %9 = alloca i32, align 4
  %10 = alloca ptr, align 8
  store i64 %0, ptr %4, align 8, !tbaa !35
  store i32 %1, ptr %5, align 4, !tbaa !34
  call void @llvm.lifetime.start.p0(i64 8, ptr %6) #27
  call void @llvm.lifetime.start.p0(i64 4, ptr %7) #27
  %11 = load i64, ptr %4, align 8, !tbaa !35
  %12 = call zeroext i1 @RB_FIXNUM_P(i64 noundef %11) #28
  br i1 %12, label %13, label %16

13:                                               ; preds = %2
  %14 = load i64, ptr %4, align 8, !tbaa !35
  %15 = call i32 @RB_FIX2INT(i64 noundef %14)
  store i32 %15, ptr %7, align 4, !tbaa !34
  br label %65

16:                                               ; preds = %2
  %17 = load i64, ptr %4, align 8, !tbaa !35
  %18 = call zeroext i1 @RB_SYMBOL_P(i64 noundef %17) #29
  br i1 %18, label %19, label %42

19:                                               ; preds = %16
  call void @llvm.lifetime.start.p0(i64 8, ptr %8) #27
  %20 = call i64 @rb_check_id(ptr noundef %4)
  store i64 %20, ptr %8, align 8, !tbaa !35
  %21 = load i64, ptr %8, align 8, !tbaa !35
  %22 = load i64, ptr @id_in, align 8, !tbaa !35
  %23 = icmp eq i64 %21, %22
  br i1 %23, label %24, label %25

24:                                               ; preds = %19
  store i32 0, ptr %7, align 4, !tbaa !34
  br label %38

25:                                               ; preds = %19
  %26 = load i64, ptr %8, align 8, !tbaa !35
  %27 = load i64, ptr @id_out, align 8, !tbaa !35
  %28 = icmp eq i64 %26, %27
  br i1 %28, label %29, label %30

29:                                               ; preds = %25
  store i32 1, ptr %7, align 4, !tbaa !34
  br label %37

30:                                               ; preds = %25
  %31 = load i64, ptr %8, align 8, !tbaa !35
  %32 = load i64, ptr @id_err, align 8, !tbaa !35
  %33 = icmp eq i64 %31, %32
  br i1 %33, label %34, label %35

34:                                               ; preds = %30
  store i32 2, ptr %7, align 4, !tbaa !34
  br label %36

35:                                               ; preds = %30
  store i32 2, ptr %9, align 4
  br label %39

36:                                               ; preds = %34
  br label %37

37:                                               ; preds = %36, %29
  br label %38

38:                                               ; preds = %37, %24
  store i32 0, ptr %9, align 4
  br label %39

39:                                               ; preds = %35, %38
  call void @llvm.lifetime.end.p0(i64 8, ptr %8) #27
  %40 = load i32, ptr %9, align 4
  switch i32 %40, label %76 [
    i32 0, label %41
    i32 2, label %74
  ]

41:                                               ; preds = %39
  br label %64

42:                                               ; preds = %16
  %43 = load i64, ptr %4, align 8, !tbaa !35
  %44 = call i64 @rb_io_check_io(i64 noundef %43)
  store i64 %44, ptr %6, align 8, !tbaa !35
  %45 = call zeroext i1 @RB_NIL_P(i64 noundef %44) #28
  br i1 %45, label %62, label %46

46:                                               ; preds = %42
  call void @llvm.lifetime.start.p0(i64 8, ptr %10) #27
  %47 = load i64, ptr %6, align 8, !tbaa !35
  %48 = call i64 @rb_io_taint_check(i64 noundef %47)
  %49 = inttoptr i64 %48 to ptr
  %50 = getelementptr inbounds nuw %struct.RFile, ptr %49, i32 0, i32 1
  %51 = load ptr, ptr %50, align 8, !tbaa !233
  store ptr %51, ptr %10, align 8, !tbaa !236
  call void @rb_io_check_closed(ptr noundef %51)
  %52 = load ptr, ptr %10, align 8, !tbaa !236
  %53 = getelementptr inbounds nuw %struct.rb_io, ptr %52, i32 0, i32 10
  %54 = load i64, ptr %53, align 8, !tbaa !237
  %55 = icmp ne i64 %54, 0
  br i1 %55, label %56, label %58

56:                                               ; preds = %46
  %57 = load i64, ptr @rb_eArgError, align 8, !tbaa !35
  call void (i64, ptr, ...) @rb_raise(i64 noundef %57, ptr noundef @.str.183) #30
  unreachable

58:                                               ; preds = %46
  %59 = load ptr, ptr %10, align 8, !tbaa !236
  %60 = getelementptr inbounds nuw %struct.rb_io, ptr %59, i32 0, i32 2
  %61 = load i32, ptr %60, align 8, !tbaa !244
  store i32 %61, ptr %7, align 4, !tbaa !34
  call void @llvm.lifetime.end.p0(i64 8, ptr %10) #27
  br label %63

62:                                               ; preds = %42
  br label %74

63:                                               ; preds = %58
  br label %64

64:                                               ; preds = %63, %41
  br label %65

65:                                               ; preds = %64, %13
  %66 = load i32, ptr %7, align 4, !tbaa !34
  %67 = icmp slt i32 %66, 0
  br i1 %67, label %68, label %70

68:                                               ; preds = %65
  %69 = load i64, ptr @rb_eArgError, align 8, !tbaa !35
  call void (i64, ptr, ...) @rb_raise(i64 noundef %69, ptr noundef @.str.184) #30
  unreachable

70:                                               ; preds = %65
  %71 = load i32, ptr %7, align 4, !tbaa !34
  %72 = sext i32 %71 to i64
  %73 = call i64 @RB_INT2FIX(i64 noundef %72) #28
  store i64 %73, ptr %3, align 8
  store i32 1, ptr %9, align 4
  br label %76

74:                                               ; preds = %39, %62
  %75 = load i64, ptr @rb_eArgError, align 8, !tbaa !35
  call void (i64, ptr, ...) @rb_raise(i64 noundef %75, ptr noundef @.str.185) #30
  unreachable

76:                                               ; preds = %70, %39
  call void @llvm.lifetime.end.p0(i64 4, ptr %7) #27
  call void @llvm.lifetime.end.p0(i64 8, ptr %6) #27
  %77 = load i64, ptr %3, align 8
  ret i64 %77
}