; Function Attrs: nounwind sspstrong uwtable
define internal fastcc range(i64 1, 4294967296) i64 @check_exec_redirect_fd(i64 noundef %0) unnamed_addr #1 {
  %2 = alloca i64, align 8
  store i64 %0, ptr %2, align 8, !tbaa !43
  %3 = and i64 %0, 1
  %.not21 = icmp eq i64 %3, 0
  br i1 %.not21, label %7, label %4

4:                                                ; preds = %1
  %5 = tail call i64 @rb_fix2int(i64 noundef %0) #27
  %6 = trunc i64 %5 to i32
  br label %42

7:                                                ; preds = %1
  %8 = and i64 %0, 254
  %9 = icmp eq i64 %8, 12
  br i1 %9, label %RB_SYMBOL_P.exit.thread, label %10

10:                                               ; preds = %7
  %11 = icmp eq i64 %0, 0
  %12 = and i64 %0, 6
  %13 = icmp ne i64 %12, 0
  %14 = or i1 %11, %13
  br i1 %14, label %RB_SYMBOL_P.exit.thread14, label %RB_SYMBOL_P.exit

RB_SYMBOL_P.exit:                                 ; preds = %10
  %15 = inttoptr i64 %0 to ptr
  %16 = load i64, ptr %15, align 8, !tbaa !69
  %17 = and i64 %16, 31
  %18 = icmp eq i64 %17, 20
  br i1 %18, label %RB_SYMBOL_P.exit.thread, label %RB_SYMBOL_P.exit.thread14

RB_SYMBOL_P.exit.thread:                          ; preds = %7, %RB_SYMBOL_P.exit
  %19 = call i64 @rb_check_id(ptr noundef nonnull %2) #27
  %20 = load i64, ptr @id_in, align 8, !tbaa !43
  %21 = icmp eq i64 %19, %20
  br i1 %21, label %.thread18, label %22

22:                                               ; preds = %RB_SYMBOL_P.exit.thread
  %23 = load i64, ptr @id_out, align 8, !tbaa !43
  %24 = icmp eq i64 %19, %23
  br i1 %24, label %.thread18, label %25

25:                                               ; preds = %22
  %26 = load i64, ptr @id_err, align 8, !tbaa !43
  %27 = icmp eq i64 %19, %26
  br i1 %27, label %.thread18, label %49

RB_SYMBOL_P.exit.thread14:                        ; preds = %10, %RB_SYMBOL_P.exit
  %28 = tail call i64 @rb_io_check_io(i64 noundef %0) #27
  %29 = icmp eq i64 %28, 4
  br i1 %29, label %49, label %30

30:                                               ; preds = %RB_SYMBOL_P.exit.thread14
  %31 = tail call i64 @rb_io_taint_check(i64 noundef %28) #27
  %32 = inttoptr i64 %31 to ptr
  %33 = getelementptr inbounds nuw i8, ptr %32, i64 16
  %34 = load ptr, ptr %33, align 8, !tbaa !298
  tail call void @rb_io_check_closed(ptr noundef %34) #27
  %35 = getelementptr inbounds nuw i8, ptr %34, i64 88
  %36 = load i64, ptr %35, align 8, !tbaa !301
  %.not = icmp eq i64 %36, 0
  br i1 %.not, label %39, label %37

37:                                               ; preds = %30
  %38 = load i64, ptr @rb_eArgError, align 8, !tbaa !43
  tail call void (i64, ptr, ...) @rb_raise(i64 noundef %38, ptr noundef nonnull @.str.183) #29
  unreachable

39:                                               ; preds = %30
  %40 = getelementptr inbounds nuw i8, ptr %34, i64 16
  %41 = load i32, ptr %40, align 8, !tbaa !308
  br label %42

42:                                               ; preds = %39, %4
  %.010 = phi i32 [ %6, %4 ], [ %41, %39 ]
  %43 = icmp slt i32 %.010, 0
  br i1 %43, label %44, label %.thread18

44:                                               ; preds = %42
  %45 = load i64, ptr @rb_eArgError, align 8, !tbaa !43
  tail call void (i64, ptr, ...) @rb_raise(i64 noundef %45, ptr noundef nonnull @.str.184) #29
  unreachable

.thread18:                                        ; preds = %22, %RB_SYMBOL_P.exit.thread, %25, %42
  %.01020 = phi i32 [ %.010, %42 ], [ 1, %22 ], [ 0, %RB_SYMBOL_P.exit.thread ], [ 2, %25 ]
  %46 = shl nuw i32 %.01020, 1
  %47 = or disjoint i32 %46, 1
  %48 = zext i32 %47 to i64
  ret i64 %48

49:                                               ; preds = %25, %RB_SYMBOL_P.exit.thread14
  %50 = load i64, ptr @rb_eArgError, align 8, !tbaa !43
  call void (i64, ptr, ...) @rb_raise(i64 noundef %50, ptr noundef nonnull @.str.185) #29
  unreachable
}